; Function Attrs: mustprogress uwtable
define hidden noundef i32 @_ZN7nanogui13TabWidgetBase10insert_tabEiRKNSt7__cxx1112basic_stringIcSt11char_traitsIcESaIcEEE(ptr noundef nonnull align 8 dereferenceable(416) %0, i32 noundef %1, ptr noundef nonnull align 8 dereferenceable(32) %2) local_unnamed_addr #0 align 2 personality ptr @__gxx_personality_v0 {
  %4 = alloca i32, align 4
  %5 = alloca i32, align 4
  %6 = getelementptr inbounds i8, ptr %0, i64 296
  %7 = load i32, ptr %6, align 8
  %8 = add nsw i32 %7, 1
  store i32 %8, ptr %6, align 8
  store i32 %7, ptr %5, align 4
  %9 = getelementptr inbounds i8, ptr %0, i64 176
  %10 = load ptr, ptr %9, align 8
  %11 = sext i32 %1 to i64
  %12 = getelementptr inbounds %"class.std::__cxx11::basic_string", ptr %10, i64 %11
  %13 = tail call ptr @_ZNSt6vectorINSt7__cxx1112basic_stringIcSt11char_traitsIcESaIcEEESaIS5_EE6insertEN9__gnu_cxx17__normal_iteratorIPKS5_S7_EERSA_(ptr noundef nonnull align 8 dereferenceable(24) %9, ptr %12, ptr noundef nonnull align 8 dereferenceable(32) %2)
  %14 = getelementptr inbounds i8, ptr %0, i64 200
  %15 = load ptr, ptr %14, align 8
  %16 = getelementptr inbounds i32, ptr %15, i64 %11
  %17 = call ptr @_ZNSt6vectorIiSaIiEE6insertEN9__gnu_cxx17__normal_iteratorIPKiS1_EERS4_(ptr noundef nonnull align 8 dereferenceable(24) %14, ptr %16, ptr noundef nonnull align 4 dereferenceable(4) %5)
  %18 = call noundef ptr @_ZN7nanogui6Widget6screenEv(ptr noundef nonnull align 8 dereferenceable(140) %0)
  %19 = getelementptr inbounds i8, ptr %18, i64 152
  %20 = load ptr, ptr %19, align 8
  call void @_ZN7nanogui13TabWidgetBase14perform_layoutEP10NVGcontext(ptr noundef nonnull align 8 dereferenceable(416) %0, ptr noundef %20)
  %21 = getelementptr inbounds i8, ptr %0, i64 252
  %22 = load i32, ptr %21, align 4
  %23 = icmp sgt i32 %22, %1
  br i1 %23, label %24, label %26

24:                                               ; preds = %3
  %25 = add nsw i32 %22, 1
  store i32 %25, ptr %21, align 4
  br label %26

26:                                               ; preds = %24, %3
  %27 = getelementptr inbounds i8, ptr %0, i64 208
  %28 = load ptr, ptr %27, align 8
  %29 = load ptr, ptr %14, align 8
  %30 = ptrtoint ptr %28 to i64
  %31 = ptrtoint ptr %29 to i64
  %32 = sub i64 %30, %31
  %33 = icmp ne i64 %32, 4
  %34 = getelementptr inbounds i8, ptr %0, i64 320
  %35 = load ptr, ptr %34, align 8
  %.not.i.i.not = icmp eq ptr %35, null
  %or.cond = select i1 %33, i1 true, i1 %.not.i.i.not
  br i1 %or.cond, label %43, label %_ZNKSt8functionIFviEEclEi.exit

_ZNKSt8functionIFviEEclEi.exit:                   ; preds = %26
  %36 = getelementptr inbounds i8, ptr %0, i64 304
  store i32 0, ptr %21, align 4
  %37 = load i32, ptr %5, align 4
  call void @llvm.lifetime.start.p0(i64 4, ptr nonnull %4)
  store i32 %37, ptr %4, align 4
  %38 = getelementptr inbounds i8, ptr %0, i64 328
  %39 = load ptr, ptr %38, align 8
  call void %39(ptr noundef nonnull align 8 dereferenceable(16) %36, ptr noundef nonnull align 4 dereferenceable(4) %4)
  call void @llvm.lifetime.end.p0(i64 4, ptr nonnull %4)
  %40 = load ptr, ptr %0, align 8
  %41 = getelementptr inbounds i8, ptr %40, i64 128
  %42 = load ptr, ptr %41, align 8
  call void %42(ptr noundef nonnull align 8 dereferenceable(416) %0)
  br label %43

43:                                               ; preds = %_ZNKSt8functionIFviEEclEi.exit, %26
  %44 = load i32, ptr %5, align 4
  ret i32 %44
}